; Function Attrs: nofree norecurse nosync nounwind memory(readwrite, inaccessiblemem: none) uwtable
define hidden void @ByteIndexedToThreeByteBgrScaleConvert(ptr noundef %0, ptr noundef %1, i32 noundef %2, i32 noundef %3, i32 noundef %4, i32 noundef %5, i32 noundef %6, i32 noundef %7, i32 noundef %8, ptr nocapture noundef readonly %9, ptr nocapture noundef readonly %10, ptr nocapture readnone %11, ptr nocapture readnone %12) #1 {
  %14 = getelementptr inbounds i8, ptr %9, i64 40
  %15 = load ptr, ptr %14, align 8
  %16 = getelementptr inbounds i8, ptr %9, i64 32
  %17 = load i32, ptr %16, align 8
  %18 = getelementptr inbounds i8, ptr %10, i64 32
  %19 = load i32, ptr %18, align 8
  %.neg = mul i32 %2, -3
  %20 = add i32 %19, %.neg
  %21 = sext i32 %20 to i64
  %22 = ptrtoint ptr %0 to i64
  %23 = sext i32 %17 to i64
  br label %24

24:                                               ; preds = %50, %13
  %.034 = phi ptr [ %1, %13 ], [ %52, %50 ]
  %.031 = phi i32 [ %5, %13 ], [ %53, %50 ]
  %.0 = phi i32 [ %3, %13 ], [ %54, %50 ]
  %25 = ashr i32 %.031, %8
  %26 = sext i32 %25 to i64
  %27 = mul nsw i64 %26, %23
  %28 = add nsw i64 %27, %22
  %29 = inttoptr i64 %28 to ptr
  br label %30

30:                                               ; preds = %30, %24
  %.1 = phi ptr [ %.034, %24 ], [ %47, %30 ]
  %.033 = phi i32 [ %2, %24 ], [ %49, %30 ]
  %.032 = phi i32 [ %4, %24 ], [ %48, %30 ]
  %31 = ashr i32 %.032, %8
  %32 = sext i32 %31 to i64
  %33 = getelementptr inbounds i8, ptr %29, i64 %32
  %34 = load i8, ptr %33, align 1
  %35 = zext i8 %34 to i64
  %36 = getelementptr inbounds i32, ptr %15, i64 %35
  %37 = load i32, ptr %36, align 4
  %38 = trunc i32 %37 to i8
  store i8 %38, ptr %.1, align 1
  %39 = lshr i32 %37, 8
  %40 = trunc i32 %39 to i8
  %41 = getelementptr inbounds i8, ptr %.1, i64 1
  store i8 %40, ptr %41, align 1
  %42 = lshr i32 %37, 16
  %43 = trunc i32 %42 to i8
  %44 = getelementptr inbounds i8, ptr %.1, i64 2
  store i8 %43, ptr %44, align 1
  %45 = ptrtoint ptr %.1 to i64
  %46 = add nsw i64 %45, 3
  %47 = inttoptr i64 %46 to ptr
  %48 = add nsw i32 %.032, %6
  %49 = add i32 %.033, -1
  %.not = icmp eq i32 %49, 0
  br i1 %.not, label %50, label %30, !llvm.loop !21

50:                                               ; preds = %30
  %51 = add nsw i64 %46, %21
  %52 = inttoptr i64 %51 to ptr
  %53 = add nsw i32 %.031, %7
  %54 = add i32 %.0, -1
  %.not36 = icmp eq i32 %54, 0
  br i1 %.not36, label %55, label %24, !llvm.loop !22

55:                                               ; preds = %50
  ret void
}